target datalayout = "e-m:e-p270:32:32-p271:32:32-p272:64:64-i64:64-i128:128-f80:128-n8:16:32:64-S128"
target triple = "x86_64-pc-linux-gnu"

%"class.sat::literal" = type { i32 }
%"class.pb::solver" = type <{ %"class.euf::th_solver", %"class.pb::solver_interface", ptr, %class.pb_util, ptr, ptr, %"struct.pb::solver::stats", [4 x i8], %class.small_object_allocator, %class.ptr_vector.3, %class.ptr_vector.3, %class.ptr_vector.3, %class.svector.5, i32, i32, i32, i32, %class.svector.7, %class.svector.5, i32, [4 x i8], %class.tracked_uint_set, %class.svector.11, %class.svector.11, i32, [4 x i8], %class.svector.5, %class.svector.11, %class.svector.5, %"struct.pb::solver::ba_sort", %class.psort_nw, %class.vector.13, %"class.sat::use_list", i8, i8, i8, [5 x i8], %class.svector.11, %class.svector.15, %class.svector.5, %class.svector.17, i32, i8, [3 x i8], %"struct.pb::solver::ineq", %"struct.pb::solver::ineq", %"struct.pb::solver::ineq", i8, [7 x i8] }>
%"class.euf::th_solver" = type { %"class.sat::extension", %"class.euf::th_model_builder", %"class.euf::th_decompile", %"class.euf::th_internalizer", ptr }
%"class.sat::extension" = type { ptr, i8, i32, %class.symbol, ptr }
%class.symbol = type { ptr }
%"class.euf::th_model_builder" = type { ptr }
%"class.euf::th_decompile" = type { ptr }
%"class.euf::th_internalizer" = type { ptr, %class.ptr_vector, %class.svector }
%class.ptr_vector = type { %class.vector }
%class.vector = type { ptr }
%class.svector = type { %class.vector.0 }
%class.vector.0 = type { ptr }
%"class.pb::solver_interface" = type { ptr }
%class.pb_util = type { ptr, i32, %class.vector.1, %class.vector.2, %class.rational }
%class.vector.1 = type { ptr }
%class.vector.2 = type { ptr }
%class.rational = type { %class.mpq }
%class.mpq = type { %class.mpz, %class.mpz }
%class.mpz = type { i32, i8, ptr }
%"struct.pb::solver::stats" = type { i32, i32, i32, i32, i32, i32, i32, i32, i32, i32, i32 }
%class.small_object_allocator = type { [32 x ptr], [32 x ptr], i64 }
%class.ptr_vector.3 = type { %class.vector.4 }
%class.vector.4 = type { ptr }
%class.svector.7 = type { %class.vector.8 }
%class.vector.8 = type { ptr }
%class.tracked_uint_set = type { %class.svector.9, %class.svector.5 }
%class.svector.9 = type { %class.vector.10 }
%class.vector.10 = type { ptr }
%"struct.pb::solver::ba_sort" = type { ptr, %"class.sat::literal", %class.svector.11 }
%class.psort_nw = type { %struct.sorting_network_config, ptr, i32, %"struct.psort_nw<pb::solver::ba_sort>::stats" }
%struct.sorting_network_config = type { i32 }
%"struct.psort_nw<pb::solver::ba_sort>::stats" = type { i32, i32, i32 }
%class.vector.13 = type { ptr }
%"class.sat::use_list" = type { %class.vector.14 }
%class.vector.14 = type { ptr }
%class.svector.11 = type { %class.vector.12 }
%class.vector.12 = type { ptr }
%class.svector.15 = type { %class.vector.16 }
%class.vector.16 = type { ptr }
%class.svector.5 = type { %class.vector.6 }
%class.vector.6 = type { ptr }
%class.svector.17 = type { %class.vector.18 }
%class.vector.18 = type { ptr }
%"struct.pb::solver::ineq" = type { %class.svector.17, i64 }
%class.app = type { %class.expr, ptr, i32, %struct.app_flags, [0 x ptr] }
%class.expr = type { %class.ast }
%class.ast = type { i32, i32, i32, i32 }
%struct.app_flags = type <{ i16, i8, i8 }>
%class.decl = type { %class.ast, %class.symbol, ptr }
%class.decl_info = type <{ i32, i32, %class.vector.2, i8, [7 x i8] }>

@_ZN3sat12null_literalE = linkonce_odr hidden constant %"class.sat::literal" { i32 -2 }, comdat, align 4
@.str = private unnamed_addr constant [114 x i8] c"generated/home/dtcxzyw/WorkSpace/Projects/compilers/llvm-opt-benchmark/bench/z3/z3/src/sat/smt/pb_internalize.cpp\00", align 1
@.str.1 = private unnamed_addr constant [29 x i8] c"UNEXPECTED CODE WAS REACHED.\00", align 1

; Function Attrs: mustprogress nounwind uwtable
define linkonce_odr hidden noundef i32 @_ZNK9decl_info13get_family_idEv(ptr noundef nonnull align 8 dereferenceable(17) %0) #6 comdat align 2 {
  %2 = alloca ptr, align 8
  store ptr %0, ptr %2, align 8, !tbaa !186
  %3 = load ptr, ptr %2, align 8
  %4 = getelementptr inbounds nuw %class.decl_info, ptr %3, i32 0, i32 0
  %5 = load i32, ptr %4, align 8, !tbaa !187
  ret i32 %5
}

; Function Attrs: mustprogress uwtable
define linkonce_odr hidden noundef i32 @_ZNK4decl13get_family_idEv(ptr noundef nonnull align 8 dereferenceable(32) %0) #4 comdat align 2 {
  %2 = alloca ptr, align 8
  store ptr %0, ptr %2, align 8, !tbaa !181
  %3 = load ptr, ptr %2, align 8
  %4 = getelementptr inbounds nuw %class.decl, ptr %3, i32 0, i32 2
  %5 = load ptr, ptr %4, align 8, !tbaa !183
  %6 = icmp eq ptr %5, null
  br i1 %6, label %7, label %8

7:                                                ; preds = %1
  br label %12

8:                                                ; preds = %1
  %9 = getelementptr inbounds nuw %class.decl, ptr %3, i32 0, i32 2
  %10 = load ptr, ptr %9, align 8, !tbaa !183
  %11 = call noundef i32 @_ZNK9decl_info13get_family_idEv(ptr noundef nonnull align 8 dereferenceable(17) %10)
  br label %12

12:                                               ; preds = %8, %7
  %13 = phi i32 [ -1, %7 ], [ %11, %8 ]
  ret i32 %13
}

; Function Attrs: mustprogress nounwind uwtable
define linkonce_odr hidden noundef ptr @_ZNK3app8get_declEv(ptr noundef nonnull align 8 dereferenceable(32) %0) #6 comdat align 2 {
  %2 = alloca ptr, align 8
  store ptr %0, ptr %2, align 8, !tbaa !90
  %3 = load ptr, ptr %2, align 8
  %4 = getelementptr inbounds nuw %class.app, ptr %3, i32 0, i32 1
  %5 = load ptr, ptr %4, align 8, !tbaa !180
  ret ptr %5
}

; Function Attrs: mustprogress nounwind uwtable
define linkonce_odr hidden noundef i32 @_ZNK3ast8get_kindEv(ptr noundef nonnull align 4 dereferenceable(16) %0) #6 comdat align 2 {
  %2 = alloca ptr, align 8
  store ptr %0, ptr %2, align 8, !tbaa !95
  %3 = load ptr, ptr %2, align 8
  %4 = getelementptr inbounds nuw %class.ast, ptr %3, i32 0, i32 1
  %5 = load i32, ptr %4, align 4
  %6 = and i32 %5, 65535
  ret i32 %6
}

; Function Attrs: mustprogress nounwind uwtable
define linkonce_odr hidden noundef i32 @_ZNK7pb_util13get_family_idEv(ptr noundef nonnull align 8 dereferenceable(64) %0) #6 comdat align 2 {
  %2 = alloca ptr, align 8
  store ptr %0, ptr %2, align 8, !tbaa !88
  %3 = load ptr, ptr %2, align 8
  %4 = getelementptr inbounds nuw %class.pb_util, ptr %3, i32 0, i32 1
  %5 = load i32, ptr %4, align 8, !tbaa !179
  ret i32 %5
}

; Function Attrs: mustprogress uwtable
define linkonce_odr hidden noundef i32 @_ZNK3app13get_family_idEv(ptr noundef nonnull align 8 dereferenceable(32) %0) #4 comdat align 2 {
  %2 = alloca ptr, align 8
  store ptr %0, ptr %2, align 8, !tbaa !90
  %3 = load ptr, ptr %2, align 8
  %4 = call noundef ptr @_ZNK3app8get_declEv(ptr noundef nonnull align 8 dereferenceable(32) %3)
  %5 = call noundef i32 @_ZNK4decl13get_family_idEv(ptr noundef nonnull align 8 dereferenceable(32) %4)
  ret i32 %5
}

; Function Attrs: inlinehint mustprogress nounwind uwtable
define linkonce_odr hidden noundef ptr @_Z6to_appP3ast(ptr noundef %0) #5 comdat {
  %2 = alloca ptr, align 8
  store ptr %0, ptr %2, align 8, !tbaa !95
  %3 = load ptr, ptr %2, align 8, !tbaa !95
  ret ptr %3
}

; Function Attrs: inlinehint mustprogress uwtable
define linkonce_odr hidden noundef zeroext i1 @_Z6is_appPK3ast(ptr noundef %0) #9 comdat {
  %2 = alloca ptr, align 8
  store ptr %0, ptr %2, align 8, !tbaa !95
  %3 = load ptr, ptr %2, align 8, !tbaa !95
  %4 = call noundef i32 @_ZNK3ast8get_kindEv(ptr noundef nonnull align 4 dereferenceable(16) %3)
  %5 = icmp eq i32 %4, 0
  ret i1 %5
}

; Function Attrs: mustprogress nounwind uwtable
define linkonce_odr hidden void @_ZN3sat7literalC2Ejb(ptr noundef nonnull align 4 dereferenceable(4) %0, i32 noundef %1, i1 noundef zeroext %2) unnamed_addr #6 comdat align 2 {
  %4 = alloca ptr, align 8
  %5 = alloca i32, align 4
  %6 = alloca i8, align 1
  store ptr %0, ptr %4, align 8, !tbaa !93
  store i32 %1, ptr %5, align 4, !tbaa !87
  %7 = zext i1 %2 to i8
  store i8 %7, ptr %6, align 1, !tbaa !12
  %8 = load ptr, ptr %4, align 8
  %9 = getelementptr inbounds nuw %"class.sat::literal", ptr %8, i32 0, i32 0
  %10 = load i32, ptr %5, align 4, !tbaa !87
  %11 = shl i32 %10, 1
  %12 = load i8, ptr %6, align 1, !tbaa !12, !range !14, !noundef !15
  %13 = trunc i8 %12 to i1
  %14 = zext i1 %13 to i32
  %15 = add i32 %11, %14
  store i32 %15, ptr %9, align 4, !tbaa !94
  ret void
}

; Function Attrs: mustprogress nounwind uwtable
define linkonce_odr hidden noundef i32 @_ZNK3sat7literal3varEv(ptr noundef nonnull align 4 dereferenceable(4) %0) #6 comdat align 2 {
  %2 = alloca ptr, align 8
  store ptr %0, ptr %2, align 8, !tbaa !93
  %3 = load ptr, ptr %2, align 8
  %4 = getelementptr inbounds nuw %"class.sat::literal", ptr %3, i32 0, i32 0
  %5 = load i32, ptr %4, align 4, !tbaa !94
  %6 = lshr i32 %5, 1
  ret i32 %6
}

; Function Attrs: inlinehint mustprogress nounwind uwtable
define linkonce_odr hidden noundef zeroext i1 @_ZN3satneERKNS_7literalES2_(ptr noundef nonnull align 4 dereferenceable(4) %0, ptr noundef nonnull align 4 dereferenceable(4) %1) #5 comdat {
  %3 = alloca ptr, align 8
  %4 = alloca ptr, align 8
  store ptr %0, ptr %3, align 8, !tbaa !93
  store ptr %1, ptr %4, align 8, !tbaa !93
  %5 = load ptr, ptr %3, align 8, !tbaa !93
  %6 = getelementptr inbounds nuw %"class.sat::literal", ptr %5, i32 0, i32 0
  %7 = load i32, ptr %6, align 4, !tbaa !94
  %8 = load ptr, ptr %4, align 8, !tbaa !93
  %9 = getelementptr inbounds nuw %"class.sat::literal", ptr %8, i32 0, i32 0
  %10 = load i32, ptr %9, align 4, !tbaa !94
  %11 = icmp ne i32 %7, %10
  ret i1 %11
}

; Function Attrs: mustprogress uwtable
define linkonce_odr hidden noundef zeroext i1 @_ZNK7pb_util5is_pbEP4expr(ptr noundef nonnull align 8 dereferenceable(64) %0, ptr noundef %1) #4 comdat align 2 {
  %3 = alloca ptr, align 8
  %4 = alloca ptr, align 8
  store ptr %0, ptr %3, align 8, !tbaa !88
  store ptr %1, ptr %4, align 8, !tbaa !8
  %5 = load ptr, ptr %3, align 8
  %6 = load ptr, ptr %4, align 8, !tbaa !8
  %7 = call noundef zeroext i1 @_Z6is_appPK3ast(ptr noundef %6)
  br i1 %7, label %8, label %14

8:                                                ; preds = %2
  %9 = load ptr, ptr %4, align 8, !tbaa !8
  %10 = call noundef ptr @_Z6to_appP3ast(ptr noundef %9)
  %11 = call noundef i32 @_ZNK3app13get_family_idEv(ptr noundef nonnull align 8 dereferenceable(32) %10)
  %12 = call noundef i32 @_ZNK7pb_util13get_family_idEv(ptr noundef nonnull align 8 dereferenceable(64) %5)
  %13 = icmp eq i32 %11, %12
  br label %14

14:                                               ; preds = %8, %2
  %15 = phi i1 [ false, %2 ], [ %13, %8 ]
  ret i1 %15
}

; Function Attrs: mustprogress uwtable
define hidden i32 @_ZN2pb6solver11internalizeEP4exprbb(ptr noundef nonnull align 8 dereferenceable(1049) %0, ptr noundef %1, i1 noundef zeroext %2, i1 noundef zeroext %3) unnamed_addr #4 align 2 {
  %5 = alloca %"class.sat::literal", align 4
  %6 = alloca ptr, align 8
  %7 = alloca ptr, align 8
  %8 = alloca i8, align 1
  %9 = alloca i8, align 1
  %10 = alloca %"class.sat::literal", align 4
  %11 = alloca %"class.sat::literal", align 4
  store ptr %0, ptr %6, align 8, !tbaa !3
  store ptr %1, ptr %7, align 8, !tbaa !8
  %12 = zext i1 %2 to i8
  store i8 %12, ptr %8, align 1, !tbaa !12
  %13 = zext i1 %3 to i8
  store i8 %13, ptr %9, align 1, !tbaa !12
  %14 = load ptr, ptr %6, align 8
  %15 = getelementptr inbounds nuw %"class.pb::solver", ptr %14, i32 0, i32 3
  %16 = load ptr, ptr %7, align 8, !tbaa !8
  %17 = call noundef zeroext i1 @_ZNK7pb_util5is_pbEP4expr(ptr noundef nonnull align 8 dereferenceable(64) %15, ptr noundef %16)
  br i1 %17, label %18, label %44

18:                                               ; preds = %4
  %19 = load ptr, ptr %7, align 8, !tbaa !8
  %20 = load i8, ptr %8, align 1, !tbaa !12, !range !14, !noundef !15
  %21 = trunc i8 %20 to i1
  %22 = load i8, ptr %9, align 1, !tbaa !12, !range !14, !noundef !15
  %23 = trunc i8 %22 to i1
  %24 = call i32 @_ZN2pb6solver14internalize_pbEP4exprbb(ptr noundef nonnull align 8 dereferenceable(1049) %14, ptr noundef %19, i1 noundef zeroext %21, i1 noundef zeroext %23)
  %25 = getelementptr inbounds nuw %"class.sat::literal", ptr %5, i32 0, i32 0
  store i32 %24, ptr %25, align 4
  %26 = getelementptr inbounds nuw %"class.pb::solver", ptr %14, i32 0, i32 5
  %27 = load ptr, ptr %26, align 8, !tbaa !16
  %28 = icmp ne ptr %27, null
  br i1 %28, label %29, label %43

29:                                               ; preds = %18
  %30 = load i8, ptr %9, align 1, !tbaa !12, !range !14, !noundef !15
  %31 = trunc i8 %30 to i1
  br i1 %31, label %43, label %32

32:                                               ; preds = %29
  %33 = call noundef zeroext i1 @_ZN3satneERKNS_7literalES2_(ptr noundef nonnull align 4 dereferenceable(4) %5, ptr noundef nonnull align 4 dereferenceable(4) @_ZN3sat12null_literalE)
  br i1 %33, label %34, label %43

34:                                               ; preds = %32
  %35 = getelementptr inbounds nuw %"class.pb::solver", ptr %14, i32 0, i32 5
  %36 = load ptr, ptr %35, align 8, !tbaa !16
  %37 = call noundef i32 @_ZNK3sat7literal3varEv(ptr noundef nonnull align 4 dereferenceable(4) %5)
  call void @_ZN3sat7literalC2Ejb(ptr noundef nonnull align 4 dereferenceable(4) %10, i32 noundef %37, i1 noundef zeroext false)
  %38 = load ptr, ptr %7, align 8, !tbaa !8
  %39 = getelementptr inbounds nuw %"class.sat::literal", ptr %10, i32 0, i32 0
  %40 = load i32, ptr %39, align 4
  %41 = call i32 @_ZN3euf6solver10attach_litEN3sat7literalEP4expr(ptr noundef nonnull align 8 dereferenceable(8456) %36, i32 %40, ptr noundef %38)
  %42 = getelementptr inbounds nuw %"class.sat::literal", ptr %11, i32 0, i32 0
  store i32 %41, ptr %42, align 4
  br label %43

43:                                               ; preds = %34, %32, %29, %18
  br label %45

44:                                               ; preds = %4
  call void @_Z26notify_assertion_violationPKciS0_(ptr noundef @.str, i32 noundef 36, ptr noundef @.str.1)
  call void @_Z18invoke_exit_actionj(i32 noundef 114)
  call void @llvm.memcpy.p0.p0.i64(ptr align 4 %5, ptr align 4 @_ZN3sat12null_literalE, i64 4, i1 false), !tbaa.struct !86
  br label %45

45:                                               ; preds = %44, %43
  %46 = getelementptr inbounds nuw %"class.sat::literal", ptr %5, i32 0, i32 0
  %47 = load i32, ptr %46, align 4
  ret i32 %47
}