; Function Attrs: mustprogress uwtable
define hidden i32 @_ZN2pb6solver11internalizeEP4exprbb(ptr noundef nonnull align 8 dereferenceable(1049) %0, ptr noundef %1, i1 noundef zeroext %2, i1 noundef zeroext %3) unnamed_addr #3 align 2 {
  %5 = getelementptr inbounds nuw i8, ptr %1, i64 4
  %6 = load i32, ptr %5, align 4
  %7 = and i32 %6, 65535
  %8 = icmp eq i32 %7, 0
  br i1 %8, label %9, label %_ZNK7pb_util5is_pbEP4expr.exit.thread

9:                                                ; preds = %4
  %10 = getelementptr inbounds nuw i8, ptr %1, i64 16
  %11 = load ptr, ptr %10, align 8, !tbaa !6
  %12 = getelementptr inbounds nuw i8, ptr %11, i64 24
  %13 = load ptr, ptr %12, align 8, !tbaa !15
  %14 = icmp eq ptr %13, null
  br i1 %14, label %_ZNK7pb_util5is_pbEP4expr.exit, label %15

15:                                               ; preds = %9
  %16 = load i32, ptr %13, align 8, !tbaa !20
  br label %_ZNK7pb_util5is_pbEP4expr.exit

_ZNK7pb_util5is_pbEP4expr.exit:                   ; preds = %9, %15
  %17 = phi i32 [ %16, %15 ], [ -1, %9 ]
  %18 = getelementptr inbounds nuw i8, ptr %0, i64 104
  %19 = load i32, ptr %18, align 8, !tbaa !25
  %20 = icmp eq i32 %17, %19
  br i1 %20, label %21, label %_ZNK7pb_util5is_pbEP4expr.exit.thread

21:                                               ; preds = %_ZNK7pb_util5is_pbEP4expr.exit
  %22 = tail call i32 @_ZN2pb6solver14internalize_pbEP4exprbb(ptr noundef nonnull align 8 dereferenceable(1049) %0, ptr noundef nonnull %1, i1 noundef zeroext %2, i1 noundef zeroext %3)
  %23 = getelementptr inbounds nuw i8, ptr %0, i64 168
  %24 = load ptr, ptr %23, align 8, !tbaa !34
  %.not = icmp eq ptr %24, null
  %brmerge = or i1 %3, %.not
  br i1 %brmerge, label %29, label %25

25:                                               ; preds = %21
  %.not9 = icmp eq i32 %22, -2
  br i1 %.not9, label %29, label %26

26:                                               ; preds = %25
  %27 = and i32 %22, -2
  %28 = tail call i32 @_ZN3euf6solver10attach_litEN3sat7literalEP4expr(ptr noundef nonnull align 8 dereferenceable(8456) %24, i32 %27, ptr noundef nonnull %1)
  br label %29

_ZNK7pb_util5is_pbEP4expr.exit.thread:            ; preds = %4, %_ZNK7pb_util5is_pbEP4expr.exit
  tail call void @_Z26notify_assertion_violationPKciS0_(ptr noundef nonnull @.str, i32 noundef 36, ptr noundef nonnull @.str.1)
  tail call void @_Z18invoke_exit_actionj(i32 noundef 114)
  br label %29

29:                                               ; preds = %21, %25, %26, %_ZNK7pb_util5is_pbEP4expr.exit.thread
  %.sroa.06.0 = phi i32 [ %22, %21 ], [ %22, %26 ], [ -2, %25 ], [ -2, %_ZNK7pb_util5is_pbEP4expr.exit.thread ]
  ret i32 %.sroa.06.0
}